; Function Attrs: nounwind uwtable
define dso_local ptr @MakePerTupleExprContext(ptr noundef %0) local_unnamed_addr #0 {
  %2 = getelementptr inbounds nuw i8, ptr %0, i64 264
  %3 = load ptr, ptr %2, align 8
  %4 = icmp eq ptr %3, null
  br i1 %4, label %5, label %30

5:                                                ; preds = %1
  %6 = getelementptr inbounds nuw i8, ptr %0, i64 192
  %7 = load ptr, ptr %6, align 8
  %8 = load ptr, ptr @CurrentMemoryContext, align 8
  store ptr %7, ptr @CurrentMemoryContext, align 8
  %9 = tail call noundef ptr @palloc0(i64 noundef 144) #12
  store i32 381, ptr %9, align 4
  %10 = getelementptr inbounds nuw i8, ptr %9, i64 8
  tail call void @llvm.memset.p0.i64(ptr noundef nonnull align 8 dereferenceable(24) %10, i8 0, i64 24, i1 false)
  %11 = load ptr, ptr %6, align 8
  %12 = getelementptr inbounds nuw i8, ptr %9, i64 32
  store ptr %11, ptr %12, align 8
  %13 = tail call ptr @AllocSetContextCreateInternal(ptr noundef %11, ptr noundef nonnull @.str.1, i64 noundef 0, i64 noundef 8192, i64 noundef 8388608) #12
  %14 = getelementptr inbounds nuw i8, ptr %9, i64 40
  store ptr %13, ptr %14, align 8
  %15 = getelementptr inbounds nuw i8, ptr %0, i64 176
  %16 = load ptr, ptr %15, align 8
  %17 = getelementptr inbounds nuw i8, ptr %9, i64 48
  store ptr %16, ptr %17, align 8
  %18 = getelementptr inbounds nuw i8, ptr %0, i64 168
  %19 = load ptr, ptr %18, align 8
  %20 = getelementptr inbounds nuw i8, ptr %9, i64 56
  store ptr %19, ptr %20, align 8
  %21 = getelementptr inbounds nuw i8, ptr %9, i64 64
  %22 = getelementptr inbounds nuw i8, ptr %9, i64 88
  tail call void @llvm.memset.p0.i64(ptr noundef nonnull align 8 dereferenceable(24) %21, i8 0, i64 24, i1 false)
  store i8 1, ptr %22, align 8
  %23 = getelementptr inbounds nuw i8, ptr %9, i64 96
  store i64 0, ptr %23, align 8
  %24 = getelementptr inbounds nuw i8, ptr %9, i64 104
  store i8 1, ptr %24, align 8
  %25 = getelementptr inbounds nuw i8, ptr %9, i64 128
  store ptr %0, ptr %25, align 8
  %26 = getelementptr inbounds nuw i8, ptr %9, i64 136
  store ptr null, ptr %26, align 8
  %27 = getelementptr inbounds nuw i8, ptr %0, i64 240
  %28 = load ptr, ptr %27, align 8
  %29 = tail call ptr @lcons(ptr noundef nonnull %9, ptr noundef %28) #12
  store ptr %29, ptr %27, align 8
  store ptr %8, ptr @CurrentMemoryContext, align 8
  store ptr %9, ptr %2, align 8
  br label %30

30:                                               ; preds = %5, %1
  %31 = phi ptr [ %9, %5 ], [ %3, %1 ]
  ret ptr %31
}